; Function Attrs: mustprogress uwtable
define void @_ZN6icu_7718CalendarAstronomer15getSunLongitudeEdRdS1_(ptr noundef nonnull readnone align 8 captures(none) dereferenceable(57) %0, double noundef %1, ptr noundef nonnull writeonly align 8 captures(none) dereferenceable(8) %2, ptr noundef nonnull writeonly align 8 captures(none) dereferenceable(8) initializes((0, 8)) %3) local_unnamed_addr #0 align 2 {
  %5 = fadd double %1, 0xC142AD09C0000000
  %6 = fmul double %5, 0x3F919D9BCDD8AC02
  %7 = fdiv double %6, 0x401921FB54442D18
  %8 = tail call noundef double @uprv_floor_77(double noundef %7)
  %9 = tail call noundef double @llvm.fmuladd.f64(double %8, double 0xC01921FB54442D18, double %6)
  %10 = fadd double %9, 0x4013818B33DDEEE0
  %11 = fadd double %10, 0xC013BDAF8CEE89A2
  %12 = fdiv double %11, 0x401921FB54442D18
  %13 = tail call noundef double @uprv_floor_77(double noundef %12)
  %14 = tail call noundef double @llvm.fmuladd.f64(double %13, double 0xC01921FB54442D18, double %11)
  store double %14, ptr %3, align 8, !tbaa !18
  br label %15

15:                                               ; preds = %15, %4
  %.0.i = phi double [ %14, %4 ], [ %22, %15 ]
  %16 = tail call double @sin(double noundef %.0.i) #16, !tbaa !14
  %17 = tail call double @llvm.fmuladd.f64(double %16, double -1.671300e-02, double %.0.i)
  %18 = fsub double %17, %14
  %19 = tail call double @cos(double noundef %.0.i) #16, !tbaa !14
  %20 = tail call double @llvm.fmuladd.f64(double %19, double -1.671300e-02, double 1.000000e+00)
  %21 = fdiv double %18, %20
  %22 = fsub double %.0.i, %21
  %23 = tail call double @uprv_fabs_77(double noundef %18)
  %24 = fcmp ogt double %23, 1.000000e-05
  br i1 %24, label %15, label %_ZN6icu_77L11trueAnomalyEdd.exit, !llvm.loop !19

_ZN6icu_77L11trueAnomalyEdd.exit:                 ; preds = %15
  %25 = fmul double %22, 5.000000e-01
  %26 = tail call double @tan(double noundef %25) #16, !tbaa !14
  %27 = fmul double %26, 0x3FF04509C69ED7D5
  %28 = tail call double @atan(double noundef %27) #16, !tbaa !14
  %29 = fmul double %28, 2.000000e+00
  %30 = fadd double %29, 0x4013BDAF8CEE89A2
  %31 = fdiv double %30, 0x401921FB54442D18
  %32 = tail call noundef double @uprv_floor_77(double noundef %31)
  %33 = tail call noundef double @llvm.fmuladd.f64(double %32, double 0xC01921FB54442D18, double %30)
  store double %33, ptr %2, align 8, !tbaa !18
  ret void
}